; ModuleID = '31/1491.c'
source_filename = "31/1491.c"
target datalayout = "e-m:e-p270:32:32-p271:32:32-p272:64:64-i64:64-f80:128-n8:16:32:64-S128"
target triple = "x86_64-pc-linux-gnu"

%struct.stu = type { [21 x i8], [21 x i8], i8, i32, [11 x i8], [21 x i8], %struct.stu*, %struct.stu* }

@head = common dso_local global %struct.stu zeroinitializer, align 8
@.str = private unnamed_addr constant [3 x i8] c"%s\00", align 1
@.str.1 = private unnamed_addr constant [4 x i8] c"end\00", align 1
@.str.2 = private unnamed_addr constant [4 x i8] c" %c\00", align 1
@.str.3 = private unnamed_addr constant [3 x i8] c"%d\00", align 1
@end = common dso_local global %struct.stu zeroinitializer, align 8
@.str.4 = private unnamed_addr constant [2 x i8] c"\0A\00", align 1
@.str.5 = private unnamed_addr constant [4 x i8] c" %s\00", align 1
@.str.6 = private unnamed_addr constant [4 x i8] c" %d\00", align 1

; Function Attrs: noinline nounwind uwtable
define dso_local void @create() #0 {
  %1 = alloca %struct.stu*, align 8
  %2 = alloca %struct.stu*, align 8
  store %struct.stu* @head, %struct.stu** %2, align 8
  %3 = call noalias i8* @malloc(i64 96) #4
  %4 = bitcast i8* %3 to %struct.stu*
  store %struct.stu* %4, %struct.stu** %1, align 8
  %5 = load %struct.stu*, %struct.stu** %1, align 8
  %6 = getelementptr inbounds %struct.stu, %struct.stu* %5, i32 0, i32 0
  %7 = getelementptr inbounds [21 x i8], [21 x i8]* %6, i64 0, i64 0
  %8 = call i32 (i8*, ...) @__isoc99_scanf(i8* getelementptr inbounds ([3 x i8], [3 x i8]* @.str, i64 0, i64 0), i8* %7)
  br label %9

9:                                                ; preds = %15, %0
  %10 = load %struct.stu*, %struct.stu** %1, align 8
  %11 = getelementptr inbounds %struct.stu, %struct.stu* %10, i32 0, i32 0
  %12 = getelementptr inbounds [21 x i8], [21 x i8]* %11, i64 0, i64 0
  %13 = call i32 @strcmp(i8* %12, i8* getelementptr inbounds ([4 x i8], [4 x i8]* @.str.1, i64 0, i64 0)) #5
  %14 = icmp ne i32 %13, 0
  br i1 %14, label %15, label %47

15:                                               ; preds = %9
  %16 = load %struct.stu*, %struct.stu** %1, align 8
  %17 = load %struct.stu*, %struct.stu** %2, align 8
  %18 = getelementptr inbounds %struct.stu, %struct.stu* %17, i32 0, i32 7
  store %struct.stu* %16, %struct.stu** %18, align 8
  %19 = load %struct.stu*, %struct.stu** %2, align 8
  %20 = load %struct.stu*, %struct.stu** %1, align 8
  %21 = getelementptr inbounds %struct.stu, %struct.stu* %20, i32 0, i32 6
  store %struct.stu* %19, %struct.stu** %21, align 8
  %22 = load %struct.stu*, %struct.stu** %1, align 8
  %23 = getelementptr inbounds %struct.stu, %struct.stu* %22, i32 0, i32 1
  %24 = getelementptr inbounds [21 x i8], [21 x i8]* %23, i64 0, i64 0
  %25 = call i32 (i8*, ...) @__isoc99_scanf(i8* getelementptr inbounds ([3 x i8], [3 x i8]* @.str, i64 0, i64 0), i8* %24)
  %26 = load %struct.stu*, %struct.stu** %1, align 8
  %27 = getelementptr inbounds %struct.stu, %struct.stu* %26, i32 0, i32 2
  %28 = call i32 (i8*, ...) @__isoc99_scanf(i8* getelementptr inbounds ([4 x i8], [4 x i8]* @.str.2, i64 0, i64 0), i8* %27)
  %29 = load %struct.stu*, %struct.stu** %1, align 8
  %30 = getelementptr inbounds %struct.stu, %struct.stu* %29, i32 0, i32 3
  %31 = call i32 (i8*, ...) @__isoc99_scanf(i8* getelementptr inbounds ([3 x i8], [3 x i8]* @.str.3, i64 0, i64 0), i32* %30)
  %32 = load %struct.stu*, %struct.stu** %1, align 8
  %33 = getelementptr inbounds %struct.stu, %struct.stu* %32, i32 0, i32 4
  %34 = getelementptr inbounds [11 x i8], [11 x i8]* %33, i64 0, i64 0
  %35 = call i32 (i8*, ...) @__isoc99_scanf(i8* getelementptr inbounds ([3 x i8], [3 x i8]* @.str, i64 0, i64 0), i8* %34)
  %36 = load %struct.stu*, %struct.stu** %1, align 8
  %37 = getelementptr inbounds %struct.stu, %struct.stu* %36, i32 0, i32 5
  %38 = getelementptr inbounds [21 x i8], [21 x i8]* %37, i64 0, i64 0
  %39 = call i32 (i8*, ...) @__isoc99_scanf(i8* getelementptr inbounds ([3 x i8], [3 x i8]* @.str, i64 0, i64 0), i8* %38)
  %40 = load %struct.stu*, %struct.stu** %1, align 8
  store %struct.stu* %40, %struct.stu** %2, align 8
  %41 = call noalias i8* @malloc(i64 96) #4
  %42 = bitcast i8* %41 to %struct.stu*
  store %struct.stu* %42, %struct.stu** %1, align 8
  %43 = load %struct.stu*, %struct.stu** %1, align 8
  %44 = getelementptr inbounds %struct.stu, %struct.stu* %43, i32 0, i32 0
  %45 = getelementptr inbounds [21 x i8], [21 x i8]* %44, i64 0, i64 0
  %46 = call i32 (i8*, ...) @__isoc99_scanf(i8* getelementptr inbounds ([3 x i8], [3 x i8]* @.str, i64 0, i64 0), i8* %45)
  br label %9

47:                                               ; preds = %9
  %48 = load %struct.stu*, %struct.stu** %2, align 8
  %49 = getelementptr inbounds %struct.stu, %struct.stu* %48, i32 0, i32 7
  store %struct.stu* @end, %struct.stu** %49, align 8
  %50 = load %struct.stu*, %struct.stu** %2, align 8
  store %struct.stu* %50, %struct.stu** getelementptr inbounds (%struct.stu, %struct.stu* @end, i32 0, i32 6), align 8
  ret void
}

; Function Attrs: nounwind
declare dso_local noalias i8* @malloc(i64) #1

declare dso_local i32 @__isoc99_scanf(i8*, ...) #2

; Function Attrs: nounwind readonly
declare dso_local i32 @strcmp(i8*, i8*) #3

; Function Attrs: noinline nounwind uwtable
define dso_local void @anti_print() #0 {
  %1 = alloca %struct.stu*, align 8
  %2 = alloca i32, align 4
  store i32 0, i32* %2, align 4
  %3 = load %struct.stu*, %struct.stu** getelementptr inbounds (%struct.stu, %struct.stu* @end, i32 0, i32 6), align 8
  store %struct.stu* %3, %struct.stu** %1, align 8
  br label %4

4:                                                ; preds = %12, %0
  %5 = load %struct.stu*, %struct.stu** %1, align 8
  %6 = icmp ne %struct.stu* %5, @head
  br i1 %6, label %7, label %41

7:                                                ; preds = %4
  %8 = load i32, i32* %2, align 4
  %9 = icmp ne i32 %8, 0
  br i1 %9, label %10, label %12

10:                                               ; preds = %7
  %11 = call i32 (i8*, ...) @printf(i8* getelementptr inbounds ([2 x i8], [2 x i8]* @.str.4, i64 0, i64 0))
  br label %12

12:                                               ; preds = %10, %7
  %13 = load %struct.stu*, %struct.stu** %1, align 8
  %14 = getelementptr inbounds %struct.stu, %struct.stu* %13, i32 0, i32 0
  %15 = getelementptr inbounds [21 x i8], [21 x i8]* %14, i64 0, i64 0
  %16 = call i32 (i8*, ...) @printf(i8* getelementptr inbounds ([3 x i8], [3 x i8]* @.str, i64 0, i64 0), i8* %15)
  %17 = load %struct.stu*, %struct.stu** %1, align 8
  %18 = getelementptr inbounds %struct.stu, %struct.stu* %17, i32 0, i32 1
  %19 = getelementptr inbounds [21 x i8], [21 x i8]* %18, i64 0, i64 0
  %20 = call i32 (i8*, ...) @printf(i8* getelementptr inbounds ([4 x i8], [4 x i8]* @.str.5, i64 0, i64 0), i8* %19)
  %21 = load %struct.stu*, %struct.stu** %1, align 8
  %22 = getelementptr inbounds %struct.stu, %struct.stu* %21, i32 0, i32 2
  %23 = load i8, i8* %22, align 2
  %24 = sext i8 %23 to i32
  %25 = call i32 (i8*, ...) @printf(i8* getelementptr inbounds ([4 x i8], [4 x i8]* @.str.2, i64 0, i64 0), i32 %24)
  %26 = load %struct.stu*, %struct.stu** %1, align 8
  %27 = getelementptr inbounds %struct.stu, %struct.stu* %26, i32 0, i32 3
  %28 = load i32, i32* %27, align 4
  %29 = call i32 (i8*, ...) @printf(i8* getelementptr inbounds ([4 x i8], [4 x i8]* @.str.6, i64 0, i64 0), i32 %28)
  %30 = load %struct.stu*, %struct.stu** %1, align 8
  %31 = getelementptr inbounds %struct.stu, %struct.stu* %30, i32 0, i32 4
  %32 = getelementptr inbounds [11 x i8], [11 x i8]* %31, i64 0, i64 0
  %33 = call i32 (i8*, ...) @printf(i8* getelementptr inbounds ([4 x i8], [4 x i8]* @.str.5, i64 0, i64 0), i8* %32)
  %34 = load %struct.stu*, %struct.stu** %1, align 8
  %35 = getelementptr inbounds %struct.stu, %struct.stu* %34, i32 0, i32 5
  %36 = getelementptr inbounds [21 x i8], [21 x i8]* %35, i64 0, i64 0
  %37 = call i32 (i8*, ...) @printf(i8* getelementptr inbounds ([4 x i8], [4 x i8]* @.str.5, i64 0, i64 0), i8* %36)
  %38 = load %struct.stu*, %struct.stu** %1, align 8
  %39 = getelementptr inbounds %struct.stu, %struct.stu* %38, i32 0, i32 6
  %40 = load %struct.stu*, %struct.stu** %39, align 8
  store %struct.stu* %40, %struct.stu** %1, align 8
  store i32 1, i32* %2, align 4
  br label %4

41:                                               ; preds = %4
  ret void
}

declare dso_local i32 @printf(i8*, ...) #2

; Function Attrs: noinline nounwind uwtable
define dso_local void @main() #0 {
  store %struct.stu* null, %struct.stu** getelementptr inbounds (%struct.stu, %struct.stu* @head, i32 0, i32 6), align 8
  store %struct.stu* null, %struct.stu** getelementptr inbounds (%struct.stu, %struct.stu* @end, i32 0, i32 7), align 8
  call void @create()
  call void @anti_print()
  ret void
}


!llvm.module.flags = !{!0}
!llvm.ident = !{!1}

!0 = !{i32 1, !"wchar_size", i32 4}
!1 = !{!"clang version 10.0.0-4ubuntu1 "}
